ARM GAS  /tmp/cctnConD.s 			page 1


   1              		.cpu cortex-m3
   2              		.eabi_attribute 20, 1
   3              		.eabi_attribute 21, 1
   4              		.eabi_attribute 23, 3
   5              		.eabi_attribute 24, 1
   6              		.eabi_attribute 25, 1
   7              		.eabi_attribute 26, 1
   8              		.eabi_attribute 30, 1
   9              		.eabi_attribute 34, 1
  10              		.eabi_attribute 18, 4
  11              		.file	"gpio.c"
  12              		.text
  13              	.Ltext0:
  14              		.cfi_sections	.debug_frame
  15              		.section	.text.gpio_set,"ax",%progbits
  16              		.align	1
  17              		.global	gpio_set
  18              		.arch armv7-m
  19              		.syntax unified
  20              		.thumb
  21              		.thumb_func
  22              		.fpu softvfp
  24              	gpio_set:
  25              	.LVL0:
  26              	.LFB65:
  27              		.file 1 "./src/gpio.c"
   1:./src/gpio.c  **** #include "gpio.h"
   2:./src/gpio.c  **** 
   3:./src/gpio.c  **** void gpio_set(gpio_t *gpio)
   4:./src/gpio.c  **** {
  28              		.loc 1 4 1 view -0
  29              		.cfi_startproc
  30              		@ args = 0, pretend = 0, frame = 0
  31              		@ frame_needed = 0, uses_anonymous_args = 0
  32              		.loc 1 4 1 is_stmt 0 view .LVU1
  33 0000 08B5     		push	{r3, lr}
  34              	.LCFI0:
  35              		.cfi_def_cfa_offset 8
  36              		.cfi_offset 3, -8
  37              		.cfi_offset 14, -4
   5:./src/gpio.c  ****     HAL_GPIO_WritePin(gpio->port, gpio->pin, GPIO_PIN_SET);
  38              		.loc 1 5 5 is_stmt 1 view .LVU2
  39 0002 0122     		movs	r2, #1
  40 0004 8188     		ldrh	r1, [r0, #4]
  41 0006 0068     		ldr	r0, [r0]
  42              	.LVL1:
  43              		.loc 1 5 5 is_stmt 0 view .LVU3
  44 0008 FFF7FEFF 		bl	HAL_GPIO_WritePin
  45              	.LVL2:
   6:./src/gpio.c  **** }
  46              		.loc 1 6 1 view .LVU4
  47 000c 08BD     		pop	{r3, pc}
  48              		.cfi_endproc
  49              	.LFE65:
  51              		.section	.text.gpio_reset,"ax",%progbits
  52              		.align	1
  53              		.global	gpio_reset
ARM GAS  /tmp/cctnConD.s 			page 2


  54              		.syntax unified
  55              		.thumb
  56              		.thumb_func
  57              		.fpu softvfp
  59              	gpio_reset:
  60              	.LVL3:
  61              	.LFB66:
   7:./src/gpio.c  **** 
   8:./src/gpio.c  **** void gpio_reset(gpio_t *gpio)
   9:./src/gpio.c  **** {
  62              		.loc 1 9 1 is_stmt 1 view -0
  63              		.cfi_startproc
  64              		@ args = 0, pretend = 0, frame = 0
  65              		@ frame_needed = 0, uses_anonymous_args = 0
  66              		.loc 1 9 1 is_stmt 0 view .LVU6
  67 0000 08B5     		push	{r3, lr}
  68              	.LCFI1:
  69              		.cfi_def_cfa_offset 8
  70              		.cfi_offset 3, -8
  71              		.cfi_offset 14, -4
  10:./src/gpio.c  ****     HAL_GPIO_WritePin(gpio->port, gpio->pin, GPIO_PIN_RESET);
  72              		.loc 1 10 5 is_stmt 1 view .LVU7
  73 0002 0022     		movs	r2, #0
  74 0004 8188     		ldrh	r1, [r0, #4]
  75 0006 0068     		ldr	r0, [r0]
  76              	.LVL4:
  77              		.loc 1 10 5 is_stmt 0 view .LVU8
  78 0008 FFF7FEFF 		bl	HAL_GPIO_WritePin
  79              	.LVL5:
  11:./src/gpio.c  **** }
  80              		.loc 1 11 1 view .LVU9
  81 000c 08BD     		pop	{r3, pc}
  82              		.cfi_endproc
  83              	.LFE66:
  85              		.section	.text.gpio_toggle,"ax",%progbits
  86              		.align	1
  87              		.global	gpio_toggle
  88              		.syntax unified
  89              		.thumb
  90              		.thumb_func
  91              		.fpu softvfp
  93              	gpio_toggle:
  94              	.LVL6:
  95              	.LFB67:
  12:./src/gpio.c  **** 
  13:./src/gpio.c  **** void gpio_toggle(gpio_t *gpio)
  14:./src/gpio.c  **** {
  96              		.loc 1 14 1 is_stmt 1 view -0
  97              		.cfi_startproc
  98              		@ args = 0, pretend = 0, frame = 0
  99              		@ frame_needed = 0, uses_anonymous_args = 0
 100              		.loc 1 14 1 is_stmt 0 view .LVU11
 101 0000 08B5     		push	{r3, lr}
 102              	.LCFI2:
 103              		.cfi_def_cfa_offset 8
 104              		.cfi_offset 3, -8
 105              		.cfi_offset 14, -4
ARM GAS  /tmp/cctnConD.s 			page 3


  15:./src/gpio.c  ****     HAL_GPIO_TogglePin(gpio->port, gpio->pin);
 106              		.loc 1 15 5 is_stmt 1 view .LVU12
 107 0002 8188     		ldrh	r1, [r0, #4]
 108 0004 0068     		ldr	r0, [r0]
 109              	.LVL7:
 110              		.loc 1 15 5 is_stmt 0 view .LVU13
 111 0006 FFF7FEFF 		bl	HAL_GPIO_TogglePin
 112              	.LVL8:
  16:./src/gpio.c  **** }
 113              		.loc 1 16 1 view .LVU14
 114 000a 08BD     		pop	{r3, pc}
 115              		.cfi_endproc
 116              	.LFE67:
 118              		.section	.text.gpio_get,"ax",%progbits
 119              		.align	1
 120              		.global	gpio_get
 121              		.syntax unified
 122              		.thumb
 123              		.thumb_func
 124              		.fpu softvfp
 126              	gpio_get:
 127              	.LVL9:
 128              	.LFB68:
  17:./src/gpio.c  **** 
  18:./src/gpio.c  **** uint8_t gpio_get(gpio_t *gpio)
  19:./src/gpio.c  **** {
 129              		.loc 1 19 1 is_stmt 1 view -0
 130              		.cfi_startproc
 131              		@ args = 0, pretend = 0, frame = 0
 132              		@ frame_needed = 0, uses_anonymous_args = 0
 133              		.loc 1 19 1 is_stmt 0 view .LVU16
 134 0000 08B5     		push	{r3, lr}
 135              	.LCFI3:
 136              		.cfi_def_cfa_offset 8
 137              		.cfi_offset 3, -8
 138              		.cfi_offset 14, -4
  20:./src/gpio.c  ****     return HAL_GPIO_ReadPin(gpio->port, gpio->pin);
 139              		.loc 1 20 5 is_stmt 1 view .LVU17
 140              		.loc 1 20 12 is_stmt 0 view .LVU18
 141 0002 8188     		ldrh	r1, [r0, #4]
 142 0004 0068     		ldr	r0, [r0]
 143              	.LVL10:
 144              		.loc 1 20 12 view .LVU19
 145 0006 FFF7FEFF 		bl	HAL_GPIO_ReadPin
 146              	.LVL11:
  21:./src/gpio.c  **** }
 147              		.loc 1 21 1 view .LVU20
 148 000a 08BD     		pop	{r3, pc}
 149              		.cfi_endproc
 150              	.LFE68:
 152              		.section	.text.gpio_set_input,"ax",%progbits
 153              		.align	1
 154              		.global	gpio_set_input
 155              		.syntax unified
 156              		.thumb
 157              		.thumb_func
 158              		.fpu softvfp
ARM GAS  /tmp/cctnConD.s 			page 4


 160              	gpio_set_input:
 161              	.LVL12:
 162              	.LFB69:
  22:./src/gpio.c  **** 
  23:./src/gpio.c  **** void gpio_set_input(gpio_t *gpio)
  24:./src/gpio.c  **** {
 163              		.loc 1 24 1 is_stmt 1 view -0
 164              		.cfi_startproc
 165              		@ args = 0, pretend = 0, frame = 16
 166              		@ frame_needed = 0, uses_anonymous_args = 0
 167              		.loc 1 24 1 is_stmt 0 view .LVU22
 168 0000 00B5     		push	{lr}
 169              	.LCFI4:
 170              		.cfi_def_cfa_offset 4
 171              		.cfi_offset 14, -4
 172 0002 85B0     		sub	sp, sp, #20
 173              	.LCFI5:
 174              		.cfi_def_cfa_offset 24
  25:./src/gpio.c  ****     GPIO_InitTypeDef GPIO_InitStruct = {0};
 175              		.loc 1 25 5 is_stmt 1 view .LVU23
 176              		.loc 1 25 22 is_stmt 0 view .LVU24
 177 0004 0023     		movs	r3, #0
 178 0006 0093     		str	r3, [sp]
 179 0008 0193     		str	r3, [sp, #4]
 180 000a 0293     		str	r3, [sp, #8]
 181 000c 0393     		str	r3, [sp, #12]
  26:./src/gpio.c  ****     GPIO_InitStruct.Pin = gpio->pin;
 182              		.loc 1 26 5 is_stmt 1 view .LVU25
 183              		.loc 1 26 31 is_stmt 0 view .LVU26
 184 000e 8388     		ldrh	r3, [r0, #4]
 185              		.loc 1 26 25 view .LVU27
 186 0010 0093     		str	r3, [sp]
  27:./src/gpio.c  ****     GPIO_InitStruct.Mode = GPIO_MODE_INPUT;
 187              		.loc 1 27 5 is_stmt 1 view .LVU28
  28:./src/gpio.c  ****     GPIO_InitStruct.Pull = GPIO_PULLUP;
 188              		.loc 1 28 5 view .LVU29
 189              		.loc 1 28 26 is_stmt 0 view .LVU30
 190 0012 0123     		movs	r3, #1
 191 0014 0293     		str	r3, [sp, #8]
  29:./src/gpio.c  ****     HAL_GPIO_Init(gpio->port, &GPIO_InitStruct);
 192              		.loc 1 29 5 is_stmt 1 view .LVU31
 193 0016 6946     		mov	r1, sp
 194 0018 0068     		ldr	r0, [r0]
 195              	.LVL13:
 196              		.loc 1 29 5 is_stmt 0 view .LVU32
 197 001a FFF7FEFF 		bl	HAL_GPIO_Init
 198              	.LVL14:
  30:./src/gpio.c  **** }
 199              		.loc 1 30 1 view .LVU33
 200 001e 05B0     		add	sp, sp, #20
 201              	.LCFI6:
 202              		.cfi_def_cfa_offset 4
 203              		@ sp needed
 204 0020 5DF804FB 		ldr	pc, [sp], #4
 205              		.cfi_endproc
 206              	.LFE69:
 208              		.section	.text.gpio_set_output,"ax",%progbits
ARM GAS  /tmp/cctnConD.s 			page 5


 209              		.align	1
 210              		.global	gpio_set_output
 211              		.syntax unified
 212              		.thumb
 213              		.thumb_func
 214              		.fpu softvfp
 216              	gpio_set_output:
 217              	.LVL15:
 218              	.LFB70:
  31:./src/gpio.c  **** 
  32:./src/gpio.c  **** void gpio_set_output(gpio_t *gpio)
  33:./src/gpio.c  **** {
 219              		.loc 1 33 1 is_stmt 1 view -0
 220              		.cfi_startproc
 221              		@ args = 0, pretend = 0, frame = 16
 222              		@ frame_needed = 0, uses_anonymous_args = 0
 223              		.loc 1 33 1 is_stmt 0 view .LVU35
 224 0000 00B5     		push	{lr}
 225              	.LCFI7:
 226              		.cfi_def_cfa_offset 4
 227              		.cfi_offset 14, -4
 228 0002 85B0     		sub	sp, sp, #20
 229              	.LCFI8:
 230              		.cfi_def_cfa_offset 24
  34:./src/gpio.c  ****     GPIO_InitTypeDef GPIO_InitStruct = {0};
 231              		.loc 1 34 5 is_stmt 1 view .LVU36
 232              		.loc 1 34 22 is_stmt 0 view .LVU37
 233 0004 0023     		movs	r3, #0
 234 0006 0093     		str	r3, [sp]
 235 0008 0193     		str	r3, [sp, #4]
 236 000a 0293     		str	r3, [sp, #8]
 237 000c 0393     		str	r3, [sp, #12]
  35:./src/gpio.c  ****     GPIO_InitStruct.Pin = gpio->pin;
 238              		.loc 1 35 5 is_stmt 1 view .LVU38
 239              		.loc 1 35 31 is_stmt 0 view .LVU39
 240 000e 8388     		ldrh	r3, [r0, #4]
 241              		.loc 1 35 25 view .LVU40
 242 0010 0093     		str	r3, [sp]
  36:./src/gpio.c  ****     GPIO_InitStruct.Mode = GPIO_MODE_OUTPUT_PP;
 243              		.loc 1 36 5 is_stmt 1 view .LVU41
 244              		.loc 1 36 26 is_stmt 0 view .LVU42
 245 0012 0123     		movs	r3, #1
 246 0014 0193     		str	r3, [sp, #4]
  37:./src/gpio.c  ****     GPIO_InitStruct.Pull = GPIO_NOPULL;
 247              		.loc 1 37 5 is_stmt 1 view .LVU43
  38:./src/gpio.c  ****     GPIO_InitStruct.Speed = GPIO_SPEED_FREQ_LOW;
 248              		.loc 1 38 5 view .LVU44
 249              		.loc 1 38 27 is_stmt 0 view .LVU45
 250 0016 0223     		movs	r3, #2
 251 0018 0393     		str	r3, [sp, #12]
  39:./src/gpio.c  ****     HAL_GPIO_Init(gpio->port, &GPIO_InitStruct);
 252              		.loc 1 39 5 is_stmt 1 view .LVU46
 253 001a 6946     		mov	r1, sp
 254 001c 0068     		ldr	r0, [r0]
 255              	.LVL16:
 256              		.loc 1 39 5 is_stmt 0 view .LVU47
 257 001e FFF7FEFF 		bl	HAL_GPIO_Init
ARM GAS  /tmp/cctnConD.s 			page 6


 258              	.LVL17:
  40:./src/gpio.c  **** }
 259              		.loc 1 40 1 view .LVU48
 260 0022 05B0     		add	sp, sp, #20
 261              	.LCFI9:
 262              		.cfi_def_cfa_offset 4
 263              		@ sp needed
 264 0024 5DF804FB 		ldr	pc, [sp], #4
 265              		.cfi_endproc
 266              	.LFE70:
 268              		.text
 269              	.Letext0:
 270              		.file 2 "/usr/lib/gcc/arm-none-eabi/10.3.1/include/stdint.h"
 271              		.file 3 "Drivers/CMSIS/Device/ST/STM32F1xx/Include/stm32f103xb.h"
 272              		.file 4 "Drivers/STM32F1xx_HAL_Driver/Inc/stm32f1xx_hal_gpio.h"
 273              		.file 5 "./src/gpio.h"
ARM GAS  /tmp/cctnConD.s 			page 7

