ARM GAS  /tmp/ccBsa4vt.s 			page 1


   1              		.cpu cortex-m3
   2              		.eabi_attribute 20, 1
   3              		.eabi_attribute 21, 1
   4              		.eabi_attribute 23, 3
   5              		.eabi_attribute 24, 1
   6              		.eabi_attribute 25, 1
   7              		.eabi_attribute 26, 1
   8              		.eabi_attribute 30, 1
   9              		.eabi_attribute 34, 1
  10              		.eabi_attribute 18, 4
  11              		.file	"led_io.c"
  12              		.text
  13              	.Ltext0:
  14              		.cfi_sections	.debug_frame
  15              		.section	.text.led_io_toggle,"ax",%progbits
  16              		.align	1
  17              		.arch armv7-m
  18              		.syntax unified
  19              		.thumb
  20              		.thumb_func
  21              		.fpu softvfp
  23              	led_io_toggle:
  24              	.LVL0:
  25              	.LFB67:
  26              		.file 1 "./src/led_io.c"
   1:./src/led_io.c **** #include "led_io.h"
   2:./src/led_io.c **** 
   3:./src/led_io.c **** static void led_io_on(led_t *led)
   4:./src/led_io.c **** {
   5:./src/led_io.c ****     gpio_reset(&led->led_io);
   6:./src/led_io.c **** }
   7:./src/led_io.c **** 
   8:./src/led_io.c **** static void led_io_off(led_t *led)
   9:./src/led_io.c **** {
  10:./src/led_io.c ****     gpio_set(&led->led_io);
  11:./src/led_io.c **** }
  12:./src/led_io.c **** 
  13:./src/led_io.c **** static void led_io_toggle(led_t *led)
  14:./src/led_io.c **** {
  27              		.loc 1 14 1 view -0
  28              		.cfi_startproc
  29              		@ args = 0, pretend = 0, frame = 0
  30              		@ frame_needed = 0, uses_anonymous_args = 0
  31              		.loc 1 14 1 is_stmt 0 view .LVU1
  32 0000 08B5     		push	{r3, lr}
  33              	.LCFI0:
  34              		.cfi_def_cfa_offset 8
  35              		.cfi_offset 3, -8
  36              		.cfi_offset 14, -4
  15:./src/led_io.c ****     gpio_toggle(&led->led_io);
  37              		.loc 1 15 5 is_stmt 1 view .LVU2
  38 0002 FFF7FEFF 		bl	gpio_toggle
  39              	.LVL1:
  16:./src/led_io.c **** }
  40              		.loc 1 16 1 is_stmt 0 view .LVU3
  41 0006 08BD     		pop	{r3, pc}
  42              		.cfi_endproc
ARM GAS  /tmp/ccBsa4vt.s 			page 2


  43              	.LFE67:
  45              		.section	.text.led_io_off,"ax",%progbits
  46              		.align	1
  47              		.syntax unified
  48              		.thumb
  49              		.thumb_func
  50              		.fpu softvfp
  52              	led_io_off:
  53              	.LVL2:
  54              	.LFB66:
   9:./src/led_io.c ****     gpio_set(&led->led_io);
  55              		.loc 1 9 1 is_stmt 1 view -0
  56              		.cfi_startproc
  57              		@ args = 0, pretend = 0, frame = 0
  58              		@ frame_needed = 0, uses_anonymous_args = 0
   9:./src/led_io.c ****     gpio_set(&led->led_io);
  59              		.loc 1 9 1 is_stmt 0 view .LVU5
  60 0000 08B5     		push	{r3, lr}
  61              	.LCFI1:
  62              		.cfi_def_cfa_offset 8
  63              		.cfi_offset 3, -8
  64              		.cfi_offset 14, -4
  10:./src/led_io.c **** }
  65              		.loc 1 10 5 is_stmt 1 view .LVU6
  66 0002 FFF7FEFF 		bl	gpio_set
  67              	.LVL3:
  11:./src/led_io.c **** 
  68              		.loc 1 11 1 is_stmt 0 view .LVU7
  69 0006 08BD     		pop	{r3, pc}
  70              		.cfi_endproc
  71              	.LFE66:
  73              		.section	.text.led_io_on,"ax",%progbits
  74              		.align	1
  75              		.syntax unified
  76              		.thumb
  77              		.thumb_func
  78              		.fpu softvfp
  80              	led_io_on:
  81              	.LVL4:
  82              	.LFB65:
   4:./src/led_io.c ****     gpio_reset(&led->led_io);
  83              		.loc 1 4 1 is_stmt 1 view -0
  84              		.cfi_startproc
  85              		@ args = 0, pretend = 0, frame = 0
  86              		@ frame_needed = 0, uses_anonymous_args = 0
   4:./src/led_io.c ****     gpio_reset(&led->led_io);
  87              		.loc 1 4 1 is_stmt 0 view .LVU9
  88 0000 08B5     		push	{r3, lr}
  89              	.LCFI2:
  90              		.cfi_def_cfa_offset 8
  91              		.cfi_offset 3, -8
  92              		.cfi_offset 14, -4
   5:./src/led_io.c **** }
  93              		.loc 1 5 5 is_stmt 1 view .LVU10
  94 0002 FFF7FEFF 		bl	gpio_reset
  95              	.LVL5:
   6:./src/led_io.c **** 
ARM GAS  /tmp/ccBsa4vt.s 			page 3


  96              		.loc 1 6 1 is_stmt 0 view .LVU11
  97 0006 08BD     		pop	{r3, pc}
  98              		.cfi_endproc
  99              	.LFE65:
 101              		.global	led_io_driver
 102              		.section	.data.led_io_driver,"aw"
 103              		.align	2
 106              	led_io_driver:
 107 0000 00000000 		.word	led_io_on
 108 0004 00000000 		.word	led_io_off
 109 0008 00000000 		.word	led_io_toggle
 110              		.text
 111              	.Letext0:
 112              		.file 2 "/usr/lib/gcc/arm-none-eabi/10.3.1/include/stdint.h"
 113              		.file 3 "Drivers/CMSIS/Device/ST/STM32F1xx/Include/stm32f103xb.h"
 114              		.file 4 "./src/gpio.h"
 115              		.file 5 "./src/led.h"
 116              		.file 6 "./src/led_io.h"
ARM GAS  /tmp/ccBsa4vt.s 			page 4

