ARM GAS  /tmp/cciIoo9c.s 			page 1


   1              		.cpu cortex-m3
   2              		.eabi_attribute 20, 1
   3              		.eabi_attribute 21, 1
   4              		.eabi_attribute 23, 3
   5              		.eabi_attribute 24, 1
   6              		.eabi_attribute 25, 1
   7              		.eabi_attribute 26, 1
   8              		.eabi_attribute 30, 1
   9              		.eabi_attribute 34, 1
  10              		.eabi_attribute 18, 4
  11              		.file	"main.c"
  12              		.section	.rodata.str1.4,"aMS",%progbits,1
  13              		.align	2
  14              	.LC0:
  15 0000 64656661 		.ascii	"defaultTask\000"
  15      756C7454 
  15      61736B00 
  16              		.text
  17              	.Ltext0:
  18              		.cfi_sections	.debug_frame
  19              		.section	.text.MX_GPIO_Init,"ax",%progbits
  20              		.align	1
  21              		.arch armv7-m
  22              		.syntax unified
  23              		.thumb
  24              		.thumb_func
  25              		.fpu softvfp
  27              	MX_GPIO_Init:
  28              	.LFB74:
  29              		.file 1 "Core/Src/main.c"
   1:Core/Src/main.c **** /* USER CODE BEGIN Header */
   2:Core/Src/main.c **** /**
   3:Core/Src/main.c ****   ******************************************************************************
   4:Core/Src/main.c ****   * @file           : main.c
   5:Core/Src/main.c ****   * @brief          : Main program body
   6:Core/Src/main.c ****   ******************************************************************************
   7:Core/Src/main.c ****   * @attention
   8:Core/Src/main.c ****   *
   9:Core/Src/main.c ****   * Copyright (c) 2025 STMicroelectronics.
  10:Core/Src/main.c ****   * All rights reserved.
  11:Core/Src/main.c ****   *
  12:Core/Src/main.c ****   * This software is licensed under terms that can be found in the LICENSE file
  13:Core/Src/main.c ****   * in the root directory of this software component.
  14:Core/Src/main.c ****   * If no LICENSE file comes with this software, it is provided AS-IS.
  15:Core/Src/main.c ****   *
  16:Core/Src/main.c ****   ******************************************************************************
  17:Core/Src/main.c ****   */
  18:Core/Src/main.c **** /* USER CODE END Header */
  19:Core/Src/main.c **** /* Includes ------------------------------------------------------------------*/
  20:Core/Src/main.c **** #include "main.h"
  21:Core/Src/main.c **** #include "cmsis_os.h"
  22:Core/Src/main.c **** 
  23:Core/Src/main.c **** /* Private includes ----------------------------------------------------------*/
  24:Core/Src/main.c **** /* USER CODE BEGIN Includes */
  25:Core/Src/main.c **** 
  26:Core/Src/main.c **** /* USER CODE END Includes */
  27:Core/Src/main.c **** 
ARM GAS  /tmp/cciIoo9c.s 			page 2


  28:Core/Src/main.c **** /* Private typedef -----------------------------------------------------------*/
  29:Core/Src/main.c **** /* USER CODE BEGIN PTD */
  30:Core/Src/main.c **** 
  31:Core/Src/main.c **** /* USER CODE END PTD */
  32:Core/Src/main.c **** 
  33:Core/Src/main.c **** /* Private define ------------------------------------------------------------*/
  34:Core/Src/main.c **** /* USER CODE BEGIN PD */
  35:Core/Src/main.c **** 
  36:Core/Src/main.c **** /* USER CODE END PD */
  37:Core/Src/main.c **** 
  38:Core/Src/main.c **** /* Private macro -------------------------------------------------------------*/
  39:Core/Src/main.c **** /* USER CODE BEGIN PM */
  40:Core/Src/main.c **** 
  41:Core/Src/main.c **** /* USER CODE END PM */
  42:Core/Src/main.c **** 
  43:Core/Src/main.c **** /* Private variables ---------------------------------------------------------*/
  44:Core/Src/main.c **** CAN_HandleTypeDef hcan;
  45:Core/Src/main.c **** 
  46:Core/Src/main.c **** SPI_HandleTypeDef hspi2;
  47:Core/Src/main.c **** 
  48:Core/Src/main.c **** osThreadId defaultTaskHandle;
  49:Core/Src/main.c **** /* USER CODE BEGIN PV */
  50:Core/Src/main.c **** 
  51:Core/Src/main.c **** /* USER CODE END PV */
  52:Core/Src/main.c **** 
  53:Core/Src/main.c **** /* Private function prototypes -----------------------------------------------*/
  54:Core/Src/main.c **** void SystemClock_Config(void);
  55:Core/Src/main.c **** static void MX_GPIO_Init(void);
  56:Core/Src/main.c **** static void MX_CAN_Init(void);
  57:Core/Src/main.c **** static void MX_SPI2_Init(void);
  58:Core/Src/main.c **** void StartDefaultTask(void const * argument);
  59:Core/Src/main.c **** 
  60:Core/Src/main.c **** /* USER CODE BEGIN PFP */
  61:Core/Src/main.c **** 
  62:Core/Src/main.c **** /* USER CODE END PFP */
  63:Core/Src/main.c **** 
  64:Core/Src/main.c **** /* Private user code ---------------------------------------------------------*/
  65:Core/Src/main.c **** /* USER CODE BEGIN 0 */
  66:Core/Src/main.c **** 
  67:Core/Src/main.c **** /* USER CODE END 0 */
  68:Core/Src/main.c **** 
  69:Core/Src/main.c **** /**
  70:Core/Src/main.c ****   * @brief  The application entry point.
  71:Core/Src/main.c ****   * @retval int
  72:Core/Src/main.c ****   */
  73:Core/Src/main.c **** int main(void)
  74:Core/Src/main.c **** {
  75:Core/Src/main.c **** 
  76:Core/Src/main.c ****   /* USER CODE BEGIN 1 */
  77:Core/Src/main.c **** 
  78:Core/Src/main.c ****   /* USER CODE END 1 */
  79:Core/Src/main.c **** 
  80:Core/Src/main.c ****   /* MCU Configuration--------------------------------------------------------*/
  81:Core/Src/main.c **** 
  82:Core/Src/main.c ****   /* Reset of all peripherals, Initializes the Flash interface and the Systick. */
  83:Core/Src/main.c ****   HAL_Init();
  84:Core/Src/main.c **** 
ARM GAS  /tmp/cciIoo9c.s 			page 3


  85:Core/Src/main.c ****   /* USER CODE BEGIN Init */
  86:Core/Src/main.c **** 
  87:Core/Src/main.c ****   /* USER CODE END Init */
  88:Core/Src/main.c **** 
  89:Core/Src/main.c ****   /* Configure the system clock */
  90:Core/Src/main.c ****   SystemClock_Config();
  91:Core/Src/main.c **** 
  92:Core/Src/main.c ****   /* USER CODE BEGIN SysInit */
  93:Core/Src/main.c **** 
  94:Core/Src/main.c ****   /* USER CODE END SysInit */
  95:Core/Src/main.c **** 
  96:Core/Src/main.c ****   /* Initialize all configured peripherals */
  97:Core/Src/main.c ****   MX_GPIO_Init();
  98:Core/Src/main.c ****   MX_CAN_Init();
  99:Core/Src/main.c ****   MX_SPI2_Init();
 100:Core/Src/main.c ****   /* USER CODE BEGIN 2 */
 101:Core/Src/main.c **** 
 102:Core/Src/main.c ****   /* USER CODE END 2 */
 103:Core/Src/main.c **** 
 104:Core/Src/main.c ****   /* USER CODE BEGIN RTOS_MUTEX */
 105:Core/Src/main.c ****   /* add mutexes, ... */
 106:Core/Src/main.c ****   /* USER CODE END RTOS_MUTEX */
 107:Core/Src/main.c **** 
 108:Core/Src/main.c ****   /* USER CODE BEGIN RTOS_SEMAPHORES */
 109:Core/Src/main.c ****   /* add semaphores, ... */
 110:Core/Src/main.c ****   /* USER CODE END RTOS_SEMAPHORES */
 111:Core/Src/main.c **** 
 112:Core/Src/main.c ****   /* USER CODE BEGIN RTOS_TIMERS */
 113:Core/Src/main.c ****   /* start timers, add new ones, ... */
 114:Core/Src/main.c ****   /* USER CODE END RTOS_TIMERS */
 115:Core/Src/main.c **** 
 116:Core/Src/main.c ****   /* USER CODE BEGIN RTOS_QUEUES */
 117:Core/Src/main.c ****   /* add queues, ... */
 118:Core/Src/main.c ****   /* USER CODE END RTOS_QUEUES */
 119:Core/Src/main.c **** 
 120:Core/Src/main.c ****   /* Create the thread(s) */
 121:Core/Src/main.c ****   /* definition and creation of defaultTask */
 122:Core/Src/main.c ****   osThreadDef(defaultTask, StartDefaultTask, osPriorityNormal, 0, 128);
 123:Core/Src/main.c ****   defaultTaskHandle = osThreadCreate(osThread(defaultTask), NULL);
 124:Core/Src/main.c **** 
 125:Core/Src/main.c ****   /* USER CODE BEGIN RTOS_THREADS */
 126:Core/Src/main.c ****   /* add threads, ... */
 127:Core/Src/main.c ****   /* USER CODE END RTOS_THREADS */
 128:Core/Src/main.c **** 
 129:Core/Src/main.c ****   /* Start scheduler */
 130:Core/Src/main.c ****   osKernelStart();
 131:Core/Src/main.c **** 
 132:Core/Src/main.c ****   /* We should never get here as control is now taken by the scheduler */
 133:Core/Src/main.c **** 
 134:Core/Src/main.c ****   /* Infinite loop */
 135:Core/Src/main.c ****   /* USER CODE BEGIN WHILE */
 136:Core/Src/main.c ****   while (1)
 137:Core/Src/main.c ****   {
 138:Core/Src/main.c ****     /* USER CODE END WHILE */
 139:Core/Src/main.c **** 
 140:Core/Src/main.c ****     /* USER CODE BEGIN 3 */
 141:Core/Src/main.c ****   }
ARM GAS  /tmp/cciIoo9c.s 			page 4


 142:Core/Src/main.c ****   /* USER CODE END 3 */
 143:Core/Src/main.c **** }
 144:Core/Src/main.c **** 
 145:Core/Src/main.c **** /**
 146:Core/Src/main.c ****   * @brief System Clock Configuration
 147:Core/Src/main.c ****   * @retval None
 148:Core/Src/main.c ****   */
 149:Core/Src/main.c **** void SystemClock_Config(void)
 150:Core/Src/main.c **** {
 151:Core/Src/main.c ****   RCC_OscInitTypeDef RCC_OscInitStruct = {0};
 152:Core/Src/main.c ****   RCC_ClkInitTypeDef RCC_ClkInitStruct = {0};
 153:Core/Src/main.c **** 
 154:Core/Src/main.c ****   /** Initializes the RCC Oscillators according to the specified parameters
 155:Core/Src/main.c ****   * in the RCC_OscInitTypeDef structure.
 156:Core/Src/main.c ****   */
 157:Core/Src/main.c ****   RCC_OscInitStruct.OscillatorType = RCC_OSCILLATORTYPE_HSI;
 158:Core/Src/main.c ****   RCC_OscInitStruct.HSIState = RCC_HSI_ON;
 159:Core/Src/main.c ****   RCC_OscInitStruct.HSICalibrationValue = RCC_HSICALIBRATION_DEFAULT;
 160:Core/Src/main.c ****   RCC_OscInitStruct.PLL.PLLState = RCC_PLL_ON;
 161:Core/Src/main.c ****   RCC_OscInitStruct.PLL.PLLSource = RCC_PLLSOURCE_HSI_DIV2;
 162:Core/Src/main.c ****   RCC_OscInitStruct.PLL.PLLMUL = RCC_PLL_MUL9;
 163:Core/Src/main.c ****   if (HAL_RCC_OscConfig(&RCC_OscInitStruct) != HAL_OK)
 164:Core/Src/main.c ****   {
 165:Core/Src/main.c ****     Error_Handler();
 166:Core/Src/main.c ****   }
 167:Core/Src/main.c **** 
 168:Core/Src/main.c ****   /** Initializes the CPU, AHB and APB buses clocks
 169:Core/Src/main.c ****   */
 170:Core/Src/main.c ****   RCC_ClkInitStruct.ClockType = RCC_CLOCKTYPE_HCLK|RCC_CLOCKTYPE_SYSCLK
 171:Core/Src/main.c ****                               |RCC_CLOCKTYPE_PCLK1|RCC_CLOCKTYPE_PCLK2;
 172:Core/Src/main.c ****   RCC_ClkInitStruct.SYSCLKSource = RCC_SYSCLKSOURCE_PLLCLK;
 173:Core/Src/main.c ****   RCC_ClkInitStruct.AHBCLKDivider = RCC_SYSCLK_DIV1;
 174:Core/Src/main.c ****   RCC_ClkInitStruct.APB1CLKDivider = RCC_HCLK_DIV1;
 175:Core/Src/main.c ****   RCC_ClkInitStruct.APB2CLKDivider = RCC_HCLK_DIV1;
 176:Core/Src/main.c **** 
 177:Core/Src/main.c ****   if (HAL_RCC_ClockConfig(&RCC_ClkInitStruct, FLASH_LATENCY_1) != HAL_OK)
 178:Core/Src/main.c ****   {
 179:Core/Src/main.c ****     Error_Handler();
 180:Core/Src/main.c ****   }
 181:Core/Src/main.c **** }
 182:Core/Src/main.c **** 
 183:Core/Src/main.c **** /**
 184:Core/Src/main.c ****   * @brief CAN Initialization Function
 185:Core/Src/main.c ****   * @param None
 186:Core/Src/main.c ****   * @retval None
 187:Core/Src/main.c ****   */
 188:Core/Src/main.c **** static void MX_CAN_Init(void)
 189:Core/Src/main.c **** {
 190:Core/Src/main.c **** 
 191:Core/Src/main.c ****   /* USER CODE BEGIN CAN_Init 0 */
 192:Core/Src/main.c **** 
 193:Core/Src/main.c ****   /* USER CODE END CAN_Init 0 */
 194:Core/Src/main.c **** 
 195:Core/Src/main.c ****   /* USER CODE BEGIN CAN_Init 1 */
 196:Core/Src/main.c **** 
 197:Core/Src/main.c ****   /* USER CODE END CAN_Init 1 */
 198:Core/Src/main.c ****   hcan.Instance = CAN1;
ARM GAS  /tmp/cciIoo9c.s 			page 5


 199:Core/Src/main.c ****   hcan.Init.Prescaler = 16;
 200:Core/Src/main.c ****   hcan.Init.Mode = CAN_MODE_NORMAL;
 201:Core/Src/main.c ****   hcan.Init.SyncJumpWidth = CAN_SJW_1TQ;
 202:Core/Src/main.c ****   hcan.Init.TimeSeg1 = CAN_BS1_1TQ;
 203:Core/Src/main.c ****   hcan.Init.TimeSeg2 = CAN_BS2_1TQ;
 204:Core/Src/main.c ****   hcan.Init.TimeTriggeredMode = DISABLE;
 205:Core/Src/main.c ****   hcan.Init.AutoBusOff = DISABLE;
 206:Core/Src/main.c ****   hcan.Init.AutoWakeUp = DISABLE;
 207:Core/Src/main.c ****   hcan.Init.AutoRetransmission = DISABLE;
 208:Core/Src/main.c ****   hcan.Init.ReceiveFifoLocked = DISABLE;
 209:Core/Src/main.c ****   hcan.Init.TransmitFifoPriority = DISABLE;
 210:Core/Src/main.c ****   if (HAL_CAN_Init(&hcan) != HAL_OK)
 211:Core/Src/main.c ****   {
 212:Core/Src/main.c ****     Error_Handler();
 213:Core/Src/main.c ****   }
 214:Core/Src/main.c ****   /* USER CODE BEGIN CAN_Init 2 */
 215:Core/Src/main.c **** 
 216:Core/Src/main.c ****   /* USER CODE END CAN_Init 2 */
 217:Core/Src/main.c **** 
 218:Core/Src/main.c **** }
 219:Core/Src/main.c **** 
 220:Core/Src/main.c **** /**
 221:Core/Src/main.c ****   * @brief SPI2 Initialization Function
 222:Core/Src/main.c ****   * @param None
 223:Core/Src/main.c ****   * @retval None
 224:Core/Src/main.c ****   */
 225:Core/Src/main.c **** static void MX_SPI2_Init(void)
 226:Core/Src/main.c **** {
 227:Core/Src/main.c **** 
 228:Core/Src/main.c ****   /* USER CODE BEGIN SPI2_Init 0 */
 229:Core/Src/main.c **** 
 230:Core/Src/main.c ****   /* USER CODE END SPI2_Init 0 */
 231:Core/Src/main.c **** 
 232:Core/Src/main.c ****   /* USER CODE BEGIN SPI2_Init 1 */
 233:Core/Src/main.c **** 
 234:Core/Src/main.c ****   /* USER CODE END SPI2_Init 1 */
 235:Core/Src/main.c ****   /* SPI2 parameter configuration*/
 236:Core/Src/main.c ****   hspi2.Instance = SPI2;
 237:Core/Src/main.c ****   hspi2.Init.Mode = SPI_MODE_MASTER;
 238:Core/Src/main.c ****   hspi2.Init.Direction = SPI_DIRECTION_2LINES;
 239:Core/Src/main.c ****   hspi2.Init.DataSize = SPI_DATASIZE_8BIT;
 240:Core/Src/main.c ****   hspi2.Init.CLKPolarity = SPI_POLARITY_LOW;
 241:Core/Src/main.c ****   hspi2.Init.CLKPhase = SPI_PHASE_1EDGE;
 242:Core/Src/main.c ****   hspi2.Init.NSS = SPI_NSS_SOFT;
 243:Core/Src/main.c ****   hspi2.Init.BaudRatePrescaler = SPI_BAUDRATEPRESCALER_2;
 244:Core/Src/main.c ****   hspi2.Init.FirstBit = SPI_FIRSTBIT_MSB;
 245:Core/Src/main.c ****   hspi2.Init.TIMode = SPI_TIMODE_DISABLE;
 246:Core/Src/main.c ****   hspi2.Init.CRCCalculation = SPI_CRCCALCULATION_DISABLE;
 247:Core/Src/main.c ****   hspi2.Init.CRCPolynomial = 10;
 248:Core/Src/main.c ****   if (HAL_SPI_Init(&hspi2) != HAL_OK)
 249:Core/Src/main.c ****   {
 250:Core/Src/main.c ****     Error_Handler();
 251:Core/Src/main.c ****   }
 252:Core/Src/main.c ****   /* USER CODE BEGIN SPI2_Init 2 */
 253:Core/Src/main.c **** 
 254:Core/Src/main.c ****   /* USER CODE END SPI2_Init 2 */
 255:Core/Src/main.c **** 
ARM GAS  /tmp/cciIoo9c.s 			page 6


 256:Core/Src/main.c **** }
 257:Core/Src/main.c **** 
 258:Core/Src/main.c **** /**
 259:Core/Src/main.c ****   * @brief GPIO Initialization Function
 260:Core/Src/main.c ****   * @param None
 261:Core/Src/main.c ****   * @retval None
 262:Core/Src/main.c ****   */
 263:Core/Src/main.c **** static void MX_GPIO_Init(void)
 264:Core/Src/main.c **** {
  30              		.loc 1 264 1 view -0
  31              		.cfi_startproc
  32              		@ args = 0, pretend = 0, frame = 32
  33              		@ frame_needed = 0, uses_anonymous_args = 0
  34 0000 30B5     		push	{r4, r5, lr}
  35              	.LCFI0:
  36              		.cfi_def_cfa_offset 12
  37              		.cfi_offset 4, -12
  38              		.cfi_offset 5, -8
  39              		.cfi_offset 14, -4
  40 0002 89B0     		sub	sp, sp, #36
  41              	.LCFI1:
  42              		.cfi_def_cfa_offset 48
 265:Core/Src/main.c ****   GPIO_InitTypeDef GPIO_InitStruct = {0};
  43              		.loc 1 265 3 view .LVU1
  44              		.loc 1 265 20 is_stmt 0 view .LVU2
  45 0004 0024     		movs	r4, #0
  46 0006 0494     		str	r4, [sp, #16]
  47 0008 0594     		str	r4, [sp, #20]
  48 000a 0694     		str	r4, [sp, #24]
  49 000c 0794     		str	r4, [sp, #28]
 266:Core/Src/main.c ****   /* USER CODE BEGIN MX_GPIO_Init_1 */
 267:Core/Src/main.c **** 
 268:Core/Src/main.c ****   /* USER CODE END MX_GPIO_Init_1 */
 269:Core/Src/main.c **** 
 270:Core/Src/main.c ****   /* GPIO Ports Clock Enable */
 271:Core/Src/main.c ****   __HAL_RCC_GPIOD_CLK_ENABLE();
  50              		.loc 1 271 3 is_stmt 1 view .LVU3
  51              	.LBB4:
  52              		.loc 1 271 3 view .LVU4
  53              		.loc 1 271 3 view .LVU5
  54 000e 184B     		ldr	r3, .L3
  55 0010 9A69     		ldr	r2, [r3, #24]
  56 0012 42F02002 		orr	r2, r2, #32
  57 0016 9A61     		str	r2, [r3, #24]
  58              		.loc 1 271 3 view .LVU6
  59 0018 9A69     		ldr	r2, [r3, #24]
  60 001a 02F02002 		and	r2, r2, #32
  61 001e 0192     		str	r2, [sp, #4]
  62              		.loc 1 271 3 view .LVU7
  63 0020 019A     		ldr	r2, [sp, #4]
  64              	.LBE4:
  65              		.loc 1 271 3 view .LVU8
 272:Core/Src/main.c ****   __HAL_RCC_GPIOB_CLK_ENABLE();
  66              		.loc 1 272 3 view .LVU9
  67              	.LBB5:
  68              		.loc 1 272 3 view .LVU10
  69              		.loc 1 272 3 view .LVU11
ARM GAS  /tmp/cciIoo9c.s 			page 7


  70 0022 9A69     		ldr	r2, [r3, #24]
  71 0024 42F00802 		orr	r2, r2, #8
  72 0028 9A61     		str	r2, [r3, #24]
  73              		.loc 1 272 3 view .LVU12
  74 002a 9A69     		ldr	r2, [r3, #24]
  75 002c 02F00802 		and	r2, r2, #8
  76 0030 0292     		str	r2, [sp, #8]
  77              		.loc 1 272 3 view .LVU13
  78 0032 029A     		ldr	r2, [sp, #8]
  79              	.LBE5:
  80              		.loc 1 272 3 view .LVU14
 273:Core/Src/main.c ****   __HAL_RCC_GPIOA_CLK_ENABLE();
  81              		.loc 1 273 3 view .LVU15
  82              	.LBB6:
  83              		.loc 1 273 3 view .LVU16
  84              		.loc 1 273 3 view .LVU17
  85 0034 9A69     		ldr	r2, [r3, #24]
  86 0036 42F00402 		orr	r2, r2, #4
  87 003a 9A61     		str	r2, [r3, #24]
  88              		.loc 1 273 3 view .LVU18
  89 003c 9B69     		ldr	r3, [r3, #24]
  90 003e 03F00403 		and	r3, r3, #4
  91 0042 0393     		str	r3, [sp, #12]
  92              		.loc 1 273 3 view .LVU19
  93 0044 039B     		ldr	r3, [sp, #12]
  94              	.LBE6:
  95              		.loc 1 273 3 view .LVU20
 274:Core/Src/main.c **** 
 275:Core/Src/main.c ****   /*Configure GPIO pin Output Level */
 276:Core/Src/main.c ****   HAL_GPIO_WritePin(GPIOB, SS_Pin|LEDT1_Pin, GPIO_PIN_RESET);
  96              		.loc 1 276 3 view .LVU21
  97 0046 0B4D     		ldr	r5, .L3+4
  98 0048 2246     		mov	r2, r4
  99 004a 4FF49051 		mov	r1, #4608
 100 004e 2846     		mov	r0, r5
 101 0050 FFF7FEFF 		bl	HAL_GPIO_WritePin
 102              	.LVL0:
 277:Core/Src/main.c **** 
 278:Core/Src/main.c ****   /*Configure GPIO pins : SS_Pin LEDT1_Pin */
 279:Core/Src/main.c ****   GPIO_InitStruct.Pin = SS_Pin|LEDT1_Pin;
 103              		.loc 1 279 3 view .LVU22
 104              		.loc 1 279 23 is_stmt 0 view .LVU23
 105 0054 4FF49053 		mov	r3, #4608
 106 0058 0493     		str	r3, [sp, #16]
 280:Core/Src/main.c ****   GPIO_InitStruct.Mode = GPIO_MODE_OUTPUT_PP;
 107              		.loc 1 280 3 is_stmt 1 view .LVU24
 108              		.loc 1 280 24 is_stmt 0 view .LVU25
 109 005a 0123     		movs	r3, #1
 110 005c 0593     		str	r3, [sp, #20]
 281:Core/Src/main.c ****   GPIO_InitStruct.Pull = GPIO_NOPULL;
 111              		.loc 1 281 3 is_stmt 1 view .LVU26
 112              		.loc 1 281 24 is_stmt 0 view .LVU27
 113 005e 0694     		str	r4, [sp, #24]
 282:Core/Src/main.c ****   GPIO_InitStruct.Speed = GPIO_SPEED_FREQ_LOW;
 114              		.loc 1 282 3 is_stmt 1 view .LVU28
 115              		.loc 1 282 25 is_stmt 0 view .LVU29
 116 0060 0223     		movs	r3, #2
ARM GAS  /tmp/cciIoo9c.s 			page 8


 117 0062 0793     		str	r3, [sp, #28]
 283:Core/Src/main.c ****   HAL_GPIO_Init(GPIOB, &GPIO_InitStruct);
 118              		.loc 1 283 3 is_stmt 1 view .LVU30
 119 0064 04A9     		add	r1, sp, #16
 120 0066 2846     		mov	r0, r5
 121 0068 FFF7FEFF 		bl	HAL_GPIO_Init
 122              	.LVL1:
 284:Core/Src/main.c **** 
 285:Core/Src/main.c ****   /* USER CODE BEGIN MX_GPIO_Init_2 */
 286:Core/Src/main.c **** 
 287:Core/Src/main.c ****   /* USER CODE END MX_GPIO_Init_2 */
 288:Core/Src/main.c **** }
 123              		.loc 1 288 1 is_stmt 0 view .LVU31
 124 006c 09B0     		add	sp, sp, #36
 125              	.LCFI2:
 126              		.cfi_def_cfa_offset 12
 127              		@ sp needed
 128 006e 30BD     		pop	{r4, r5, pc}
 129              	.L4:
 130              		.align	2
 131              	.L3:
 132 0070 00100240 		.word	1073876992
 133 0074 000C0140 		.word	1073810432
 134              		.cfi_endproc
 135              	.LFE74:
 137              		.section	.text.StartDefaultTask,"ax",%progbits
 138              		.align	1
 139              		.global	StartDefaultTask
 140              		.syntax unified
 141              		.thumb
 142              		.thumb_func
 143              		.fpu softvfp
 145              	StartDefaultTask:
 146              	.LFB75:
 289:Core/Src/main.c **** 
 290:Core/Src/main.c **** /* USER CODE BEGIN 4 */
 291:Core/Src/main.c **** 
 292:Core/Src/main.c **** /* USER CODE END 4 */
 293:Core/Src/main.c **** 
 294:Core/Src/main.c **** /* USER CODE BEGIN Header_StartDefaultTask */
 295:Core/Src/main.c **** /**
 296:Core/Src/main.c ****   * @brief  Function implementing the defaultTask thread.
 297:Core/Src/main.c ****   * @param  argument: Not used
 298:Core/Src/main.c ****   * @retval None
 299:Core/Src/main.c ****   */
 300:Core/Src/main.c **** /* USER CODE END Header_StartDefaultTask */
 301:Core/Src/main.c **** void StartDefaultTask(void const * argument)
 302:Core/Src/main.c **** {
 147              		.loc 1 302 1 is_stmt 1 view -0
 148              		.cfi_startproc
 149              		@ Volatile: function does not return.
 150              		@ args = 0, pretend = 0, frame = 0
 151              		@ frame_needed = 0, uses_anonymous_args = 0
 152              	.LVL2:
 153              		.loc 1 302 1 is_stmt 0 view .LVU33
 154 0000 08B5     		push	{r3, lr}
 155              	.LCFI3:
ARM GAS  /tmp/cciIoo9c.s 			page 9


 156              		.cfi_def_cfa_offset 8
 157              		.cfi_offset 3, -8
 158              		.cfi_offset 14, -4
 159              	.LVL3:
 160              	.L6:
 303:Core/Src/main.c ****   /* USER CODE BEGIN 5 */
 304:Core/Src/main.c ****   /* Infinite loop */
 305:Core/Src/main.c ****   for(;;)
 161              		.loc 1 305 3 is_stmt 1 discriminator 1 view .LVU34
 306:Core/Src/main.c ****   {
 307:Core/Src/main.c ****     HAL_GPIO_WritePin(GPIOB, GPIO_PIN_9, GPIO_PIN_SET);
 162              		.loc 1 307 5 discriminator 1 view .LVU35
 163 0002 0B4C     		ldr	r4, .L8
 164 0004 0122     		movs	r2, #1
 165 0006 4FF40071 		mov	r1, #512
 166 000a 2046     		mov	r0, r4
 167 000c FFF7FEFF 		bl	HAL_GPIO_WritePin
 168              	.LVL4:
 308:Core/Src/main.c ****     osDelay(2000);
 169              		.loc 1 308 5 discriminator 1 view .LVU36
 170 0010 4FF4FA60 		mov	r0, #2000
 171 0014 FFF7FEFF 		bl	osDelay
 172              	.LVL5:
 309:Core/Src/main.c ****     HAL_GPIO_WritePin(GPIOB, GPIO_PIN_9, GPIO_PIN_RESET);
 173              		.loc 1 309 5 discriminator 1 view .LVU37
 174 0018 0022     		movs	r2, #0
 175 001a 4FF40071 		mov	r1, #512
 176 001e 2046     		mov	r0, r4
 177 0020 FFF7FEFF 		bl	HAL_GPIO_WritePin
 178              	.LVL6:
 310:Core/Src/main.c ****     osDelay(2000);
 179              		.loc 1 310 5 discriminator 1 view .LVU38
 180 0024 4FF4FA60 		mov	r0, #2000
 181 0028 FFF7FEFF 		bl	osDelay
 182              	.LVL7:
 305:Core/Src/main.c ****   {
 183              		.loc 1 305 8 discriminator 1 view .LVU39
 184 002c E9E7     		b	.L6
 185              	.L9:
 186 002e 00BF     		.align	2
 187              	.L8:
 188 0030 000C0140 		.word	1073810432
 189              		.cfi_endproc
 190              	.LFE75:
 192              		.section	.text.Error_Handler,"ax",%progbits
 193              		.align	1
 194              		.global	Error_Handler
 195              		.syntax unified
 196              		.thumb
 197              		.thumb_func
 198              		.fpu softvfp
 200              	Error_Handler:
 201              	.LFB76:
 311:Core/Src/main.c ****   }
 312:Core/Src/main.c ****   /* USER CODE END 5 */
 313:Core/Src/main.c **** }
 314:Core/Src/main.c **** 
ARM GAS  /tmp/cciIoo9c.s 			page 10


 315:Core/Src/main.c **** /**
 316:Core/Src/main.c ****   * @brief  This function is executed in case of error occurrence.
 317:Core/Src/main.c ****   * @retval None
 318:Core/Src/main.c ****   */
 319:Core/Src/main.c **** void Error_Handler(void)
 320:Core/Src/main.c **** {
 202              		.loc 1 320 1 view -0
 203              		.cfi_startproc
 204              		@ Volatile: function does not return.
 205              		@ args = 0, pretend = 0, frame = 0
 206              		@ frame_needed = 0, uses_anonymous_args = 0
 207              		@ link register save eliminated.
 321:Core/Src/main.c ****   /* USER CODE BEGIN Error_Handler_Debug */
 322:Core/Src/main.c ****   /* User can add his own implementation to report the HAL error return state */
 323:Core/Src/main.c ****   __disable_irq();
 208              		.loc 1 323 3 view .LVU41
 209              	.LBB7:
 210              	.LBI7:
 211              		.file 2 "Drivers/CMSIS/Include/cmsis_gcc.h"
   1:Drivers/CMSIS/Include/cmsis_gcc.h **** /**************************************************************************//**
   2:Drivers/CMSIS/Include/cmsis_gcc.h ****  * @file     cmsis_gcc.h
   3:Drivers/CMSIS/Include/cmsis_gcc.h ****  * @brief    CMSIS compiler GCC header file
   4:Drivers/CMSIS/Include/cmsis_gcc.h ****  * @version  V5.0.4
   5:Drivers/CMSIS/Include/cmsis_gcc.h ****  * @date     09. April 2018
   6:Drivers/CMSIS/Include/cmsis_gcc.h ****  ******************************************************************************/
   7:Drivers/CMSIS/Include/cmsis_gcc.h **** /*
   8:Drivers/CMSIS/Include/cmsis_gcc.h ****  * Copyright (c) 2009-2018 Arm Limited. All rights reserved.
   9:Drivers/CMSIS/Include/cmsis_gcc.h ****  *
  10:Drivers/CMSIS/Include/cmsis_gcc.h ****  * SPDX-License-Identifier: Apache-2.0
  11:Drivers/CMSIS/Include/cmsis_gcc.h ****  *
  12:Drivers/CMSIS/Include/cmsis_gcc.h ****  * Licensed under the Apache License, Version 2.0 (the License); you may
  13:Drivers/CMSIS/Include/cmsis_gcc.h ****  * not use this file except in compliance with the License.
  14:Drivers/CMSIS/Include/cmsis_gcc.h ****  * You may obtain a copy of the License at
  15:Drivers/CMSIS/Include/cmsis_gcc.h ****  *
  16:Drivers/CMSIS/Include/cmsis_gcc.h ****  * www.apache.org/licenses/LICENSE-2.0
  17:Drivers/CMSIS/Include/cmsis_gcc.h ****  *
  18:Drivers/CMSIS/Include/cmsis_gcc.h ****  * Unless required by applicable law or agreed to in writing, software
  19:Drivers/CMSIS/Include/cmsis_gcc.h ****  * distributed under the License is distributed on an AS IS BASIS, WITHOUT
  20:Drivers/CMSIS/Include/cmsis_gcc.h ****  * WARRANTIES OR CONDITIONS OF ANY KIND, either express or implied.
  21:Drivers/CMSIS/Include/cmsis_gcc.h ****  * See the License for the specific language governing permissions and
  22:Drivers/CMSIS/Include/cmsis_gcc.h ****  * limitations under the License.
  23:Drivers/CMSIS/Include/cmsis_gcc.h ****  */
  24:Drivers/CMSIS/Include/cmsis_gcc.h **** 
  25:Drivers/CMSIS/Include/cmsis_gcc.h **** #ifndef __CMSIS_GCC_H
  26:Drivers/CMSIS/Include/cmsis_gcc.h **** #define __CMSIS_GCC_H
  27:Drivers/CMSIS/Include/cmsis_gcc.h **** 
  28:Drivers/CMSIS/Include/cmsis_gcc.h **** /* ignore some GCC warnings */
  29:Drivers/CMSIS/Include/cmsis_gcc.h **** #pragma GCC diagnostic push
  30:Drivers/CMSIS/Include/cmsis_gcc.h **** #pragma GCC diagnostic ignored "-Wsign-conversion"
  31:Drivers/CMSIS/Include/cmsis_gcc.h **** #pragma GCC diagnostic ignored "-Wconversion"
  32:Drivers/CMSIS/Include/cmsis_gcc.h **** #pragma GCC diagnostic ignored "-Wunused-parameter"
  33:Drivers/CMSIS/Include/cmsis_gcc.h **** 
  34:Drivers/CMSIS/Include/cmsis_gcc.h **** /* Fallback for __has_builtin */
  35:Drivers/CMSIS/Include/cmsis_gcc.h **** #ifndef __has_builtin
  36:Drivers/CMSIS/Include/cmsis_gcc.h ****   #define __has_builtin(x) (0)
  37:Drivers/CMSIS/Include/cmsis_gcc.h **** #endif
  38:Drivers/CMSIS/Include/cmsis_gcc.h **** 
ARM GAS  /tmp/cciIoo9c.s 			page 11


  39:Drivers/CMSIS/Include/cmsis_gcc.h **** /* CMSIS compiler specific defines */
  40:Drivers/CMSIS/Include/cmsis_gcc.h **** #ifndef   __ASM
  41:Drivers/CMSIS/Include/cmsis_gcc.h ****   #define __ASM                                  __asm
  42:Drivers/CMSIS/Include/cmsis_gcc.h **** #endif
  43:Drivers/CMSIS/Include/cmsis_gcc.h **** #ifndef   __INLINE
  44:Drivers/CMSIS/Include/cmsis_gcc.h ****   #define __INLINE                               inline
  45:Drivers/CMSIS/Include/cmsis_gcc.h **** #endif
  46:Drivers/CMSIS/Include/cmsis_gcc.h **** #ifndef   __STATIC_INLINE
  47:Drivers/CMSIS/Include/cmsis_gcc.h ****   #define __STATIC_INLINE                        static inline
  48:Drivers/CMSIS/Include/cmsis_gcc.h **** #endif
  49:Drivers/CMSIS/Include/cmsis_gcc.h **** #ifndef   __STATIC_FORCEINLINE                 
  50:Drivers/CMSIS/Include/cmsis_gcc.h ****   #define __STATIC_FORCEINLINE                   __attribute__((always_inline)) static inline
  51:Drivers/CMSIS/Include/cmsis_gcc.h **** #endif                                           
  52:Drivers/CMSIS/Include/cmsis_gcc.h **** #ifndef   __NO_RETURN
  53:Drivers/CMSIS/Include/cmsis_gcc.h ****   #define __NO_RETURN                            __attribute__((__noreturn__))
  54:Drivers/CMSIS/Include/cmsis_gcc.h **** #endif
  55:Drivers/CMSIS/Include/cmsis_gcc.h **** #ifndef   __USED
  56:Drivers/CMSIS/Include/cmsis_gcc.h ****   #define __USED                                 __attribute__((used))
  57:Drivers/CMSIS/Include/cmsis_gcc.h **** #endif
  58:Drivers/CMSIS/Include/cmsis_gcc.h **** #ifndef   __WEAK
  59:Drivers/CMSIS/Include/cmsis_gcc.h ****   #define __WEAK                                 __attribute__((weak))
  60:Drivers/CMSIS/Include/cmsis_gcc.h **** #endif
  61:Drivers/CMSIS/Include/cmsis_gcc.h **** #ifndef   __PACKED
  62:Drivers/CMSIS/Include/cmsis_gcc.h ****   #define __PACKED                               __attribute__((packed, aligned(1)))
  63:Drivers/CMSIS/Include/cmsis_gcc.h **** #endif
  64:Drivers/CMSIS/Include/cmsis_gcc.h **** #ifndef   __PACKED_STRUCT
  65:Drivers/CMSIS/Include/cmsis_gcc.h ****   #define __PACKED_STRUCT                        struct __attribute__((packed, aligned(1)))
  66:Drivers/CMSIS/Include/cmsis_gcc.h **** #endif
  67:Drivers/CMSIS/Include/cmsis_gcc.h **** #ifndef   __PACKED_UNION
  68:Drivers/CMSIS/Include/cmsis_gcc.h ****   #define __PACKED_UNION                         union __attribute__((packed, aligned(1)))
  69:Drivers/CMSIS/Include/cmsis_gcc.h **** #endif
  70:Drivers/CMSIS/Include/cmsis_gcc.h **** #ifndef   __UNALIGNED_UINT32        /* deprecated */
  71:Drivers/CMSIS/Include/cmsis_gcc.h ****   #pragma GCC diagnostic push
  72:Drivers/CMSIS/Include/cmsis_gcc.h ****   #pragma GCC diagnostic ignored "-Wpacked"
  73:Drivers/CMSIS/Include/cmsis_gcc.h ****   #pragma GCC diagnostic ignored "-Wattributes"
  74:Drivers/CMSIS/Include/cmsis_gcc.h ****   struct __attribute__((packed)) T_UINT32 { uint32_t v; };
  75:Drivers/CMSIS/Include/cmsis_gcc.h ****   #pragma GCC diagnostic pop
  76:Drivers/CMSIS/Include/cmsis_gcc.h ****   #define __UNALIGNED_UINT32(x)                  (((struct T_UINT32 *)(x))->v)
  77:Drivers/CMSIS/Include/cmsis_gcc.h **** #endif
  78:Drivers/CMSIS/Include/cmsis_gcc.h **** #ifndef   __UNALIGNED_UINT16_WRITE
  79:Drivers/CMSIS/Include/cmsis_gcc.h ****   #pragma GCC diagnostic push
  80:Drivers/CMSIS/Include/cmsis_gcc.h ****   #pragma GCC diagnostic ignored "-Wpacked"
  81:Drivers/CMSIS/Include/cmsis_gcc.h ****   #pragma GCC diagnostic ignored "-Wattributes"
  82:Drivers/CMSIS/Include/cmsis_gcc.h ****   __PACKED_STRUCT T_UINT16_WRITE { uint16_t v; };
  83:Drivers/CMSIS/Include/cmsis_gcc.h ****   #pragma GCC diagnostic pop
  84:Drivers/CMSIS/Include/cmsis_gcc.h ****   #define __UNALIGNED_UINT16_WRITE(addr, val)    (void)((((struct T_UINT16_WRITE *)(void *)(addr))-
  85:Drivers/CMSIS/Include/cmsis_gcc.h **** #endif
  86:Drivers/CMSIS/Include/cmsis_gcc.h **** #ifndef   __UNALIGNED_UINT16_READ
  87:Drivers/CMSIS/Include/cmsis_gcc.h ****   #pragma GCC diagnostic push
  88:Drivers/CMSIS/Include/cmsis_gcc.h ****   #pragma GCC diagnostic ignored "-Wpacked"
  89:Drivers/CMSIS/Include/cmsis_gcc.h ****   #pragma GCC diagnostic ignored "-Wattributes"
  90:Drivers/CMSIS/Include/cmsis_gcc.h ****   __PACKED_STRUCT T_UINT16_READ { uint16_t v; };
  91:Drivers/CMSIS/Include/cmsis_gcc.h ****   #pragma GCC diagnostic pop
  92:Drivers/CMSIS/Include/cmsis_gcc.h ****   #define __UNALIGNED_UINT16_READ(addr)          (((const struct T_UINT16_READ *)(const void *)(add
  93:Drivers/CMSIS/Include/cmsis_gcc.h **** #endif
  94:Drivers/CMSIS/Include/cmsis_gcc.h **** #ifndef   __UNALIGNED_UINT32_WRITE
  95:Drivers/CMSIS/Include/cmsis_gcc.h ****   #pragma GCC diagnostic push
ARM GAS  /tmp/cciIoo9c.s 			page 12


  96:Drivers/CMSIS/Include/cmsis_gcc.h ****   #pragma GCC diagnostic ignored "-Wpacked"
  97:Drivers/CMSIS/Include/cmsis_gcc.h ****   #pragma GCC diagnostic ignored "-Wattributes"
  98:Drivers/CMSIS/Include/cmsis_gcc.h ****   __PACKED_STRUCT T_UINT32_WRITE { uint32_t v; };
  99:Drivers/CMSIS/Include/cmsis_gcc.h ****   #pragma GCC diagnostic pop
 100:Drivers/CMSIS/Include/cmsis_gcc.h ****   #define __UNALIGNED_UINT32_WRITE(addr, val)    (void)((((struct T_UINT32_WRITE *)(void *)(addr))-
 101:Drivers/CMSIS/Include/cmsis_gcc.h **** #endif
 102:Drivers/CMSIS/Include/cmsis_gcc.h **** #ifndef   __UNALIGNED_UINT32_READ
 103:Drivers/CMSIS/Include/cmsis_gcc.h ****   #pragma GCC diagnostic push
 104:Drivers/CMSIS/Include/cmsis_gcc.h ****   #pragma GCC diagnostic ignored "-Wpacked"
 105:Drivers/CMSIS/Include/cmsis_gcc.h ****   #pragma GCC diagnostic ignored "-Wattributes"
 106:Drivers/CMSIS/Include/cmsis_gcc.h ****   __PACKED_STRUCT T_UINT32_READ { uint32_t v; };
 107:Drivers/CMSIS/Include/cmsis_gcc.h ****   #pragma GCC diagnostic pop
 108:Drivers/CMSIS/Include/cmsis_gcc.h ****   #define __UNALIGNED_UINT32_READ(addr)          (((const struct T_UINT32_READ *)(const void *)(add
 109:Drivers/CMSIS/Include/cmsis_gcc.h **** #endif
 110:Drivers/CMSIS/Include/cmsis_gcc.h **** #ifndef   __ALIGNED
 111:Drivers/CMSIS/Include/cmsis_gcc.h ****   #define __ALIGNED(x)                           __attribute__((aligned(x)))
 112:Drivers/CMSIS/Include/cmsis_gcc.h **** #endif
 113:Drivers/CMSIS/Include/cmsis_gcc.h **** #ifndef   __RESTRICT
 114:Drivers/CMSIS/Include/cmsis_gcc.h ****   #define __RESTRICT                             __restrict
 115:Drivers/CMSIS/Include/cmsis_gcc.h **** #endif
 116:Drivers/CMSIS/Include/cmsis_gcc.h **** 
 117:Drivers/CMSIS/Include/cmsis_gcc.h **** 
 118:Drivers/CMSIS/Include/cmsis_gcc.h **** /* ###########################  Core Function Access  ########################### */
 119:Drivers/CMSIS/Include/cmsis_gcc.h **** /** \ingroup  CMSIS_Core_FunctionInterface
 120:Drivers/CMSIS/Include/cmsis_gcc.h ****     \defgroup CMSIS_Core_RegAccFunctions CMSIS Core Register Access Functions
 121:Drivers/CMSIS/Include/cmsis_gcc.h ****   @{
 122:Drivers/CMSIS/Include/cmsis_gcc.h ****  */
 123:Drivers/CMSIS/Include/cmsis_gcc.h **** 
 124:Drivers/CMSIS/Include/cmsis_gcc.h **** /**
 125:Drivers/CMSIS/Include/cmsis_gcc.h ****   \brief   Enable IRQ Interrupts
 126:Drivers/CMSIS/Include/cmsis_gcc.h ****   \details Enables IRQ interrupts by clearing the I-bit in the CPSR.
 127:Drivers/CMSIS/Include/cmsis_gcc.h ****            Can only be executed in Privileged modes.
 128:Drivers/CMSIS/Include/cmsis_gcc.h ****  */
 129:Drivers/CMSIS/Include/cmsis_gcc.h **** __STATIC_FORCEINLINE void __enable_irq(void)
 130:Drivers/CMSIS/Include/cmsis_gcc.h **** {
 131:Drivers/CMSIS/Include/cmsis_gcc.h ****   __ASM volatile ("cpsie i" : : : "memory");
 132:Drivers/CMSIS/Include/cmsis_gcc.h **** }
 133:Drivers/CMSIS/Include/cmsis_gcc.h **** 
 134:Drivers/CMSIS/Include/cmsis_gcc.h **** 
 135:Drivers/CMSIS/Include/cmsis_gcc.h **** /**
 136:Drivers/CMSIS/Include/cmsis_gcc.h ****   \brief   Disable IRQ Interrupts
 137:Drivers/CMSIS/Include/cmsis_gcc.h ****   \details Disables IRQ interrupts by setting the I-bit in the CPSR.
 138:Drivers/CMSIS/Include/cmsis_gcc.h ****            Can only be executed in Privileged modes.
 139:Drivers/CMSIS/Include/cmsis_gcc.h ****  */
 140:Drivers/CMSIS/Include/cmsis_gcc.h **** __STATIC_FORCEINLINE void __disable_irq(void)
 212              		.loc 2 140 27 view .LVU42
 213              	.LBB8:
 141:Drivers/CMSIS/Include/cmsis_gcc.h **** {
 142:Drivers/CMSIS/Include/cmsis_gcc.h ****   __ASM volatile ("cpsid i" : : : "memory");
 214              		.loc 2 142 3 view .LVU43
 215              		.syntax unified
 216              	@ 142 "Drivers/CMSIS/Include/cmsis_gcc.h" 1
 217 0000 72B6     		cpsid i
 218              	@ 0 "" 2
 219              		.thumb
 220              		.syntax unified
 221              	.L11:
ARM GAS  /tmp/cciIoo9c.s 			page 13


 222              	.LBE8:
 223              	.LBE7:
 324:Core/Src/main.c ****   while (1)
 224              		.loc 1 324 3 discriminator 1 view .LVU44
 325:Core/Src/main.c ****   {
 326:Core/Src/main.c ****   }
 225              		.loc 1 326 3 discriminator 1 view .LVU45
 324:Core/Src/main.c ****   while (1)
 226              		.loc 1 324 9 discriminator 1 view .LVU46
 227 0002 FEE7     		b	.L11
 228              		.cfi_endproc
 229              	.LFE76:
 231              		.section	.text.MX_CAN_Init,"ax",%progbits
 232              		.align	1
 233              		.syntax unified
 234              		.thumb
 235              		.thumb_func
 236              		.fpu softvfp
 238              	MX_CAN_Init:
 239              	.LFB72:
 189:Core/Src/main.c **** 
 240              		.loc 1 189 1 view -0
 241              		.cfi_startproc
 242              		@ args = 0, pretend = 0, frame = 0
 243              		@ frame_needed = 0, uses_anonymous_args = 0
 244 0000 08B5     		push	{r3, lr}
 245              	.LCFI4:
 246              		.cfi_def_cfa_offset 8
 247              		.cfi_offset 3, -8
 248              		.cfi_offset 14, -4
 198:Core/Src/main.c ****   hcan.Init.Prescaler = 16;
 249              		.loc 1 198 3 view .LVU48
 198:Core/Src/main.c ****   hcan.Init.Prescaler = 16;
 250              		.loc 1 198 17 is_stmt 0 view .LVU49
 251 0002 0B48     		ldr	r0, .L16
 252 0004 0B4B     		ldr	r3, .L16+4
 253 0006 0360     		str	r3, [r0]
 199:Core/Src/main.c ****   hcan.Init.Mode = CAN_MODE_NORMAL;
 254              		.loc 1 199 3 is_stmt 1 view .LVU50
 199:Core/Src/main.c ****   hcan.Init.Mode = CAN_MODE_NORMAL;
 255              		.loc 1 199 23 is_stmt 0 view .LVU51
 256 0008 1023     		movs	r3, #16
 257 000a 4360     		str	r3, [r0, #4]
 200:Core/Src/main.c ****   hcan.Init.SyncJumpWidth = CAN_SJW_1TQ;
 258              		.loc 1 200 3 is_stmt 1 view .LVU52
 200:Core/Src/main.c ****   hcan.Init.SyncJumpWidth = CAN_SJW_1TQ;
 259              		.loc 1 200 18 is_stmt 0 view .LVU53
 260 000c 0023     		movs	r3, #0
 261 000e 8360     		str	r3, [r0, #8]
 201:Core/Src/main.c ****   hcan.Init.TimeSeg1 = CAN_BS1_1TQ;
 262              		.loc 1 201 3 is_stmt 1 view .LVU54
 201:Core/Src/main.c ****   hcan.Init.TimeSeg1 = CAN_BS1_1TQ;
 263              		.loc 1 201 27 is_stmt 0 view .LVU55
 264 0010 C360     		str	r3, [r0, #12]
 202:Core/Src/main.c ****   hcan.Init.TimeSeg2 = CAN_BS2_1TQ;
 265              		.loc 1 202 3 is_stmt 1 view .LVU56
 202:Core/Src/main.c ****   hcan.Init.TimeSeg2 = CAN_BS2_1TQ;
ARM GAS  /tmp/cciIoo9c.s 			page 14


 266              		.loc 1 202 22 is_stmt 0 view .LVU57
 267 0012 0361     		str	r3, [r0, #16]
 203:Core/Src/main.c ****   hcan.Init.TimeTriggeredMode = DISABLE;
 268              		.loc 1 203 3 is_stmt 1 view .LVU58
 203:Core/Src/main.c ****   hcan.Init.TimeTriggeredMode = DISABLE;
 269              		.loc 1 203 22 is_stmt 0 view .LVU59
 270 0014 4361     		str	r3, [r0, #20]
 204:Core/Src/main.c ****   hcan.Init.AutoBusOff = DISABLE;
 271              		.loc 1 204 3 is_stmt 1 view .LVU60
 204:Core/Src/main.c ****   hcan.Init.AutoBusOff = DISABLE;
 272              		.loc 1 204 31 is_stmt 0 view .LVU61
 273 0016 0376     		strb	r3, [r0, #24]
 205:Core/Src/main.c ****   hcan.Init.AutoWakeUp = DISABLE;
 274              		.loc 1 205 3 is_stmt 1 view .LVU62
 205:Core/Src/main.c ****   hcan.Init.AutoWakeUp = DISABLE;
 275              		.loc 1 205 24 is_stmt 0 view .LVU63
 276 0018 4376     		strb	r3, [r0, #25]
 206:Core/Src/main.c ****   hcan.Init.AutoRetransmission = DISABLE;
 277              		.loc 1 206 3 is_stmt 1 view .LVU64
 206:Core/Src/main.c ****   hcan.Init.AutoRetransmission = DISABLE;
 278              		.loc 1 206 24 is_stmt 0 view .LVU65
 279 001a 8376     		strb	r3, [r0, #26]
 207:Core/Src/main.c ****   hcan.Init.ReceiveFifoLocked = DISABLE;
 280              		.loc 1 207 3 is_stmt 1 view .LVU66
 207:Core/Src/main.c ****   hcan.Init.ReceiveFifoLocked = DISABLE;
 281              		.loc 1 207 32 is_stmt 0 view .LVU67
 282 001c C376     		strb	r3, [r0, #27]
 208:Core/Src/main.c ****   hcan.Init.TransmitFifoPriority = DISABLE;
 283              		.loc 1 208 3 is_stmt 1 view .LVU68
 208:Core/Src/main.c ****   hcan.Init.TransmitFifoPriority = DISABLE;
 284              		.loc 1 208 31 is_stmt 0 view .LVU69
 285 001e 0377     		strb	r3, [r0, #28]
 209:Core/Src/main.c ****   if (HAL_CAN_Init(&hcan) != HAL_OK)
 286              		.loc 1 209 3 is_stmt 1 view .LVU70
 209:Core/Src/main.c ****   if (HAL_CAN_Init(&hcan) != HAL_OK)
 287              		.loc 1 209 34 is_stmt 0 view .LVU71
 288 0020 4377     		strb	r3, [r0, #29]
 210:Core/Src/main.c ****   {
 289              		.loc 1 210 3 is_stmt 1 view .LVU72
 210:Core/Src/main.c ****   {
 290              		.loc 1 210 7 is_stmt 0 view .LVU73
 291 0022 FFF7FEFF 		bl	HAL_CAN_Init
 292              	.LVL8:
 210:Core/Src/main.c ****   {
 293              		.loc 1 210 6 view .LVU74
 294 0026 00B9     		cbnz	r0, .L15
 218:Core/Src/main.c **** 
 295              		.loc 1 218 1 view .LVU75
 296 0028 08BD     		pop	{r3, pc}
 297              	.L15:
 212:Core/Src/main.c ****   }
 298              		.loc 1 212 5 is_stmt 1 view .LVU76
 299 002a FFF7FEFF 		bl	Error_Handler
 300              	.LVL9:
 301              	.L17:
 302 002e 00BF     		.align	2
 303              	.L16:
ARM GAS  /tmp/cciIoo9c.s 			page 15


 304 0030 00000000 		.word	.LANCHOR0
 305 0034 00640040 		.word	1073767424
 306              		.cfi_endproc
 307              	.LFE72:
 309              		.section	.text.MX_SPI2_Init,"ax",%progbits
 310              		.align	1
 311              		.syntax unified
 312              		.thumb
 313              		.thumb_func
 314              		.fpu softvfp
 316              	MX_SPI2_Init:
 317              	.LFB73:
 226:Core/Src/main.c **** 
 318              		.loc 1 226 1 view -0
 319              		.cfi_startproc
 320              		@ args = 0, pretend = 0, frame = 0
 321              		@ frame_needed = 0, uses_anonymous_args = 0
 322 0000 08B5     		push	{r3, lr}
 323              	.LCFI5:
 324              		.cfi_def_cfa_offset 8
 325              		.cfi_offset 3, -8
 326              		.cfi_offset 14, -4
 236:Core/Src/main.c ****   hspi2.Init.Mode = SPI_MODE_MASTER;
 327              		.loc 1 236 3 view .LVU78
 236:Core/Src/main.c ****   hspi2.Init.Mode = SPI_MODE_MASTER;
 328              		.loc 1 236 18 is_stmt 0 view .LVU79
 329 0002 0D48     		ldr	r0, .L22
 330 0004 0D4B     		ldr	r3, .L22+4
 331 0006 0360     		str	r3, [r0]
 237:Core/Src/main.c ****   hspi2.Init.Direction = SPI_DIRECTION_2LINES;
 332              		.loc 1 237 3 is_stmt 1 view .LVU80
 237:Core/Src/main.c ****   hspi2.Init.Direction = SPI_DIRECTION_2LINES;
 333              		.loc 1 237 19 is_stmt 0 view .LVU81
 334 0008 4FF48273 		mov	r3, #260
 335 000c 4360     		str	r3, [r0, #4]
 238:Core/Src/main.c ****   hspi2.Init.DataSize = SPI_DATASIZE_8BIT;
 336              		.loc 1 238 3 is_stmt 1 view .LVU82
 238:Core/Src/main.c ****   hspi2.Init.DataSize = SPI_DATASIZE_8BIT;
 337              		.loc 1 238 24 is_stmt 0 view .LVU83
 338 000e 0023     		movs	r3, #0
 339 0010 8360     		str	r3, [r0, #8]
 239:Core/Src/main.c ****   hspi2.Init.CLKPolarity = SPI_POLARITY_LOW;
 340              		.loc 1 239 3 is_stmt 1 view .LVU84
 239:Core/Src/main.c ****   hspi2.Init.CLKPolarity = SPI_POLARITY_LOW;
 341              		.loc 1 239 23 is_stmt 0 view .LVU85
 342 0012 C360     		str	r3, [r0, #12]
 240:Core/Src/main.c ****   hspi2.Init.CLKPhase = SPI_PHASE_1EDGE;
 343              		.loc 1 240 3 is_stmt 1 view .LVU86
 240:Core/Src/main.c ****   hspi2.Init.CLKPhase = SPI_PHASE_1EDGE;
 344              		.loc 1 240 26 is_stmt 0 view .LVU87
 345 0014 0361     		str	r3, [r0, #16]
 241:Core/Src/main.c ****   hspi2.Init.NSS = SPI_NSS_SOFT;
 346              		.loc 1 241 3 is_stmt 1 view .LVU88
 241:Core/Src/main.c ****   hspi2.Init.NSS = SPI_NSS_SOFT;
 347              		.loc 1 241 23 is_stmt 0 view .LVU89
 348 0016 4361     		str	r3, [r0, #20]
 242:Core/Src/main.c ****   hspi2.Init.BaudRatePrescaler = SPI_BAUDRATEPRESCALER_2;
ARM GAS  /tmp/cciIoo9c.s 			page 16


 349              		.loc 1 242 3 is_stmt 1 view .LVU90
 242:Core/Src/main.c ****   hspi2.Init.BaudRatePrescaler = SPI_BAUDRATEPRESCALER_2;
 350              		.loc 1 242 18 is_stmt 0 view .LVU91
 351 0018 4FF40072 		mov	r2, #512
 352 001c 8261     		str	r2, [r0, #24]
 243:Core/Src/main.c ****   hspi2.Init.FirstBit = SPI_FIRSTBIT_MSB;
 353              		.loc 1 243 3 is_stmt 1 view .LVU92
 243:Core/Src/main.c ****   hspi2.Init.FirstBit = SPI_FIRSTBIT_MSB;
 354              		.loc 1 243 32 is_stmt 0 view .LVU93
 355 001e C361     		str	r3, [r0, #28]
 244:Core/Src/main.c ****   hspi2.Init.TIMode = SPI_TIMODE_DISABLE;
 356              		.loc 1 244 3 is_stmt 1 view .LVU94
 244:Core/Src/main.c ****   hspi2.Init.TIMode = SPI_TIMODE_DISABLE;
 357              		.loc 1 244 23 is_stmt 0 view .LVU95
 358 0020 0362     		str	r3, [r0, #32]
 245:Core/Src/main.c ****   hspi2.Init.CRCCalculation = SPI_CRCCALCULATION_DISABLE;
 359              		.loc 1 245 3 is_stmt 1 view .LVU96
 245:Core/Src/main.c ****   hspi2.Init.CRCCalculation = SPI_CRCCALCULATION_DISABLE;
 360              		.loc 1 245 21 is_stmt 0 view .LVU97
 361 0022 4362     		str	r3, [r0, #36]
 246:Core/Src/main.c ****   hspi2.Init.CRCPolynomial = 10;
 362              		.loc 1 246 3 is_stmt 1 view .LVU98
 246:Core/Src/main.c ****   hspi2.Init.CRCPolynomial = 10;
 363              		.loc 1 246 29 is_stmt 0 view .LVU99
 364 0024 8362     		str	r3, [r0, #40]
 247:Core/Src/main.c ****   if (HAL_SPI_Init(&hspi2) != HAL_OK)
 365              		.loc 1 247 3 is_stmt 1 view .LVU100
 247:Core/Src/main.c ****   if (HAL_SPI_Init(&hspi2) != HAL_OK)
 366              		.loc 1 247 28 is_stmt 0 view .LVU101
 367 0026 0A23     		movs	r3, #10
 368 0028 C362     		str	r3, [r0, #44]
 248:Core/Src/main.c ****   {
 369              		.loc 1 248 3 is_stmt 1 view .LVU102
 248:Core/Src/main.c ****   {
 370              		.loc 1 248 7 is_stmt 0 view .LVU103
 371 002a FFF7FEFF 		bl	HAL_SPI_Init
 372              	.LVL10:
 248:Core/Src/main.c ****   {
 373              		.loc 1 248 6 view .LVU104
 374 002e 00B9     		cbnz	r0, .L21
 256:Core/Src/main.c **** 
 375              		.loc 1 256 1 view .LVU105
 376 0030 08BD     		pop	{r3, pc}
 377              	.L21:
 250:Core/Src/main.c ****   }
 378              		.loc 1 250 5 is_stmt 1 view .LVU106
 379 0032 FFF7FEFF 		bl	Error_Handler
 380              	.LVL11:
 381              	.L23:
 382 0036 00BF     		.align	2
 383              	.L22:
 384 0038 00000000 		.word	.LANCHOR1
 385 003c 00380040 		.word	1073756160
 386              		.cfi_endproc
 387              	.LFE73:
 389              		.section	.text.SystemClock_Config,"ax",%progbits
 390              		.align	1
ARM GAS  /tmp/cciIoo9c.s 			page 17


 391              		.global	SystemClock_Config
 392              		.syntax unified
 393              		.thumb
 394              		.thumb_func
 395              		.fpu softvfp
 397              	SystemClock_Config:
 398              	.LFB71:
 150:Core/Src/main.c ****   RCC_OscInitTypeDef RCC_OscInitStruct = {0};
 399              		.loc 1 150 1 view -0
 400              		.cfi_startproc
 401              		@ args = 0, pretend = 0, frame = 64
 402              		@ frame_needed = 0, uses_anonymous_args = 0
 403 0000 00B5     		push	{lr}
 404              	.LCFI6:
 405              		.cfi_def_cfa_offset 4
 406              		.cfi_offset 14, -4
 407 0002 91B0     		sub	sp, sp, #68
 408              	.LCFI7:
 409              		.cfi_def_cfa_offset 72
 151:Core/Src/main.c ****   RCC_ClkInitTypeDef RCC_ClkInitStruct = {0};
 410              		.loc 1 151 3 view .LVU108
 151:Core/Src/main.c ****   RCC_ClkInitTypeDef RCC_ClkInitStruct = {0};
 411              		.loc 1 151 22 is_stmt 0 view .LVU109
 412 0004 2822     		movs	r2, #40
 413 0006 0021     		movs	r1, #0
 414 0008 06A8     		add	r0, sp, #24
 415 000a FFF7FEFF 		bl	memset
 416              	.LVL12:
 152:Core/Src/main.c **** 
 417              		.loc 1 152 3 is_stmt 1 view .LVU110
 152:Core/Src/main.c **** 
 418              		.loc 1 152 22 is_stmt 0 view .LVU111
 419 000e 0023     		movs	r3, #0
 420 0010 0193     		str	r3, [sp, #4]
 421 0012 0293     		str	r3, [sp, #8]
 422 0014 0393     		str	r3, [sp, #12]
 423 0016 0493     		str	r3, [sp, #16]
 424 0018 0593     		str	r3, [sp, #20]
 157:Core/Src/main.c ****   RCC_OscInitStruct.HSIState = RCC_HSI_ON;
 425              		.loc 1 157 3 is_stmt 1 view .LVU112
 157:Core/Src/main.c ****   RCC_OscInitStruct.HSIState = RCC_HSI_ON;
 426              		.loc 1 157 36 is_stmt 0 view .LVU113
 427 001a 0223     		movs	r3, #2
 428 001c 0693     		str	r3, [sp, #24]
 158:Core/Src/main.c ****   RCC_OscInitStruct.HSICalibrationValue = RCC_HSICALIBRATION_DEFAULT;
 429              		.loc 1 158 3 is_stmt 1 view .LVU114
 158:Core/Src/main.c ****   RCC_OscInitStruct.HSICalibrationValue = RCC_HSICALIBRATION_DEFAULT;
 430              		.loc 1 158 30 is_stmt 0 view .LVU115
 431 001e 0122     		movs	r2, #1
 432 0020 0A92     		str	r2, [sp, #40]
 159:Core/Src/main.c ****   RCC_OscInitStruct.PLL.PLLState = RCC_PLL_ON;
 433              		.loc 1 159 3 is_stmt 1 view .LVU116
 159:Core/Src/main.c ****   RCC_OscInitStruct.PLL.PLLState = RCC_PLL_ON;
 434              		.loc 1 159 41 is_stmt 0 view .LVU117
 435 0022 1022     		movs	r2, #16
 436 0024 0B92     		str	r2, [sp, #44]
 160:Core/Src/main.c ****   RCC_OscInitStruct.PLL.PLLSource = RCC_PLLSOURCE_HSI_DIV2;
ARM GAS  /tmp/cciIoo9c.s 			page 18


 437              		.loc 1 160 3 is_stmt 1 view .LVU118
 160:Core/Src/main.c ****   RCC_OscInitStruct.PLL.PLLSource = RCC_PLLSOURCE_HSI_DIV2;
 438              		.loc 1 160 34 is_stmt 0 view .LVU119
 439 0026 0D93     		str	r3, [sp, #52]
 161:Core/Src/main.c ****   RCC_OscInitStruct.PLL.PLLMUL = RCC_PLL_MUL9;
 440              		.loc 1 161 3 is_stmt 1 view .LVU120
 162:Core/Src/main.c ****   if (HAL_RCC_OscConfig(&RCC_OscInitStruct) != HAL_OK)
 441              		.loc 1 162 3 view .LVU121
 162:Core/Src/main.c ****   if (HAL_RCC_OscConfig(&RCC_OscInitStruct) != HAL_OK)
 442              		.loc 1 162 32 is_stmt 0 view .LVU122
 443 0028 4FF4E013 		mov	r3, #1835008
 444 002c 0F93     		str	r3, [sp, #60]
 163:Core/Src/main.c ****   {
 445              		.loc 1 163 3 is_stmt 1 view .LVU123
 163:Core/Src/main.c ****   {
 446              		.loc 1 163 7 is_stmt 0 view .LVU124
 447 002e 06A8     		add	r0, sp, #24
 448 0030 FFF7FEFF 		bl	HAL_RCC_OscConfig
 449              	.LVL13:
 163:Core/Src/main.c ****   {
 450              		.loc 1 163 6 view .LVU125
 451 0034 78B9     		cbnz	r0, .L28
 170:Core/Src/main.c ****                               |RCC_CLOCKTYPE_PCLK1|RCC_CLOCKTYPE_PCLK2;
 452              		.loc 1 170 3 is_stmt 1 view .LVU126
 170:Core/Src/main.c ****                               |RCC_CLOCKTYPE_PCLK1|RCC_CLOCKTYPE_PCLK2;
 453              		.loc 1 170 31 is_stmt 0 view .LVU127
 454 0036 0F23     		movs	r3, #15
 455 0038 0193     		str	r3, [sp, #4]
 172:Core/Src/main.c ****   RCC_ClkInitStruct.AHBCLKDivider = RCC_SYSCLK_DIV1;
 456              		.loc 1 172 3 is_stmt 1 view .LVU128
 172:Core/Src/main.c ****   RCC_ClkInitStruct.AHBCLKDivider = RCC_SYSCLK_DIV1;
 457              		.loc 1 172 34 is_stmt 0 view .LVU129
 458 003a 0223     		movs	r3, #2
 459 003c 0293     		str	r3, [sp, #8]
 173:Core/Src/main.c ****   RCC_ClkInitStruct.APB1CLKDivider = RCC_HCLK_DIV1;
 460              		.loc 1 173 3 is_stmt 1 view .LVU130
 173:Core/Src/main.c ****   RCC_ClkInitStruct.APB1CLKDivider = RCC_HCLK_DIV1;
 461              		.loc 1 173 35 is_stmt 0 view .LVU131
 462 003e 0023     		movs	r3, #0
 463 0040 0393     		str	r3, [sp, #12]
 174:Core/Src/main.c ****   RCC_ClkInitStruct.APB2CLKDivider = RCC_HCLK_DIV1;
 464              		.loc 1 174 3 is_stmt 1 view .LVU132
 174:Core/Src/main.c ****   RCC_ClkInitStruct.APB2CLKDivider = RCC_HCLK_DIV1;
 465              		.loc 1 174 36 is_stmt 0 view .LVU133
 466 0042 0493     		str	r3, [sp, #16]
 175:Core/Src/main.c **** 
 467              		.loc 1 175 3 is_stmt 1 view .LVU134
 175:Core/Src/main.c **** 
 468              		.loc 1 175 36 is_stmt 0 view .LVU135
 469 0044 0593     		str	r3, [sp, #20]
 177:Core/Src/main.c ****   {
 470              		.loc 1 177 3 is_stmt 1 view .LVU136
 177:Core/Src/main.c ****   {
 471              		.loc 1 177 7 is_stmt 0 view .LVU137
 472 0046 0121     		movs	r1, #1
 473 0048 01A8     		add	r0, sp, #4
 474 004a FFF7FEFF 		bl	HAL_RCC_ClockConfig
ARM GAS  /tmp/cciIoo9c.s 			page 19


 475              	.LVL14:
 177:Core/Src/main.c ****   {
 476              		.loc 1 177 6 view .LVU138
 477 004e 20B9     		cbnz	r0, .L29
 181:Core/Src/main.c **** 
 478              		.loc 1 181 1 view .LVU139
 479 0050 11B0     		add	sp, sp, #68
 480              	.LCFI8:
 481              		.cfi_remember_state
 482              		.cfi_def_cfa_offset 4
 483              		@ sp needed
 484 0052 5DF804FB 		ldr	pc, [sp], #4
 485              	.L28:
 486              	.LCFI9:
 487              		.cfi_restore_state
 165:Core/Src/main.c ****   }
 488              		.loc 1 165 5 is_stmt 1 view .LVU140
 489 0056 FFF7FEFF 		bl	Error_Handler
 490              	.LVL15:
 491              	.L29:
 179:Core/Src/main.c ****   }
 492              		.loc 1 179 5 view .LVU141
 493 005a FFF7FEFF 		bl	Error_Handler
 494              	.LVL16:
 495              		.cfi_endproc
 496              	.LFE71:
 498              		.section	.text.main,"ax",%progbits
 499              		.align	1
 500              		.global	main
 501              		.syntax unified
 502              		.thumb
 503              		.thumb_func
 504              		.fpu softvfp
 506              	main:
 507              	.LFB70:
  74:Core/Src/main.c **** 
 508              		.loc 1 74 1 view -0
 509              		.cfi_startproc
 510              		@ Volatile: function does not return.
 511              		@ args = 0, pretend = 0, frame = 32
 512              		@ frame_needed = 0, uses_anonymous_args = 0
 513 0000 00B5     		push	{lr}
 514              	.LCFI10:
 515              		.cfi_def_cfa_offset 4
 516              		.cfi_offset 14, -4
 517 0002 89B0     		sub	sp, sp, #36
 518              	.LCFI11:
 519              		.cfi_def_cfa_offset 40
  83:Core/Src/main.c **** 
 520              		.loc 1 83 3 view .LVU143
 521 0004 FFF7FEFF 		bl	HAL_Init
 522              	.LVL17:
  90:Core/Src/main.c **** 
 523              		.loc 1 90 3 view .LVU144
 524 0008 FFF7FEFF 		bl	SystemClock_Config
 525              	.LVL18:
  97:Core/Src/main.c ****   MX_CAN_Init();
ARM GAS  /tmp/cciIoo9c.s 			page 20


 526              		.loc 1 97 3 view .LVU145
 527 000c FFF7FEFF 		bl	MX_GPIO_Init
 528              	.LVL19:
  98:Core/Src/main.c ****   MX_SPI2_Init();
 529              		.loc 1 98 3 view .LVU146
 530 0010 FFF7FEFF 		bl	MX_CAN_Init
 531              	.LVL20:
  99:Core/Src/main.c ****   /* USER CODE BEGIN 2 */
 532              		.loc 1 99 3 view .LVU147
 533 0014 FFF7FEFF 		bl	MX_SPI2_Init
 534              	.LVL21:
 122:Core/Src/main.c ****   defaultTaskHandle = osThreadCreate(osThread(defaultTask), NULL);
 535              		.loc 1 122 3 view .LVU148
 536 0018 0DF1040C 		add	ip, sp, #4
 537 001c 084C     		ldr	r4, .L33
 538 001e 0FCC     		ldmia	r4!, {r0, r1, r2, r3}
 539 0020 ACE80F00 		stmia	ip!, {r0, r1, r2, r3}
 540 0024 94E80700 		ldm	r4, {r0, r1, r2}
 541 0028 8CE80700 		stm	ip, {r0, r1, r2}
 123:Core/Src/main.c **** 
 542              		.loc 1 123 3 view .LVU149
 123:Core/Src/main.c **** 
 543              		.loc 1 123 23 is_stmt 0 view .LVU150
 544 002c 0021     		movs	r1, #0
 545 002e 01A8     		add	r0, sp, #4
 546 0030 FFF7FEFF 		bl	osThreadCreate
 547              	.LVL22:
 123:Core/Src/main.c **** 
 548              		.loc 1 123 21 view .LVU151
 549 0034 034B     		ldr	r3, .L33+4
 550 0036 1860     		str	r0, [r3]
 130:Core/Src/main.c **** 
 551              		.loc 1 130 3 is_stmt 1 view .LVU152
 552 0038 FFF7FEFF 		bl	osKernelStart
 553              	.LVL23:
 554              	.L31:
 136:Core/Src/main.c ****   {
 555              		.loc 1 136 3 discriminator 1 view .LVU153
 141:Core/Src/main.c ****   /* USER CODE END 3 */
 556              		.loc 1 141 3 discriminator 1 view .LVU154
 136:Core/Src/main.c ****   {
 557              		.loc 1 136 9 discriminator 1 view .LVU155
 558 003c FEE7     		b	.L31
 559              	.L34:
 560 003e 00BF     		.align	2
 561              	.L33:
 562 0040 00000000 		.word	.LANCHOR2
 563 0044 00000000 		.word	.LANCHOR3
 564              		.cfi_endproc
 565              	.LFE70:
 567              		.global	defaultTaskHandle
 568              		.global	hspi2
 569              		.global	hcan
 570              		.section	.rodata
 571              		.align	2
 572              		.set	.LANCHOR2,. + 0
 573              	.LC2:
ARM GAS  /tmp/cciIoo9c.s 			page 21


 574 0000 00000000 		.word	.LC0
 575 0004 00000000 		.word	StartDefaultTask
 576 0008 0000     		.short	0
 577 000a 0000     		.space	2
 578 000c 00000000 		.word	0
 579 0010 80000000 		.word	128
 580 0014 00000000 		.word	0
 581 0018 00000000 		.word	0
 582              		.section	.bss.defaultTaskHandle,"aw",%nobits
 583              		.align	2
 584              		.set	.LANCHOR3,. + 0
 587              	defaultTaskHandle:
 588 0000 00000000 		.space	4
 589              		.section	.bss.hcan,"aw",%nobits
 590              		.align	2
 591              		.set	.LANCHOR0,. + 0
 594              	hcan:
 595 0000 00000000 		.space	40
 595      00000000 
 595      00000000 
 595      00000000 
 595      00000000 
 596              		.section	.bss.hspi2,"aw",%nobits
 597              		.align	2
 598              		.set	.LANCHOR1,. + 0
 601              	hspi2:
 602 0000 00000000 		.space	88
 602      00000000 
 602      00000000 
 602      00000000 
 602      00000000 
 603              		.text
 604              	.Letext0:
 605              		.file 3 "/usr/lib/gcc/arm-none-eabi/10.3.1/include/stdint.h"
 606              		.file 4 "Drivers/CMSIS/Device/ST/STM32F1xx/Include/stm32f103xb.h"
 607              		.file 5 "Drivers/CMSIS/Device/ST/STM32F1xx/Include/stm32f1xx.h"
 608              		.file 6 "Drivers/STM32F1xx_HAL_Driver/Inc/stm32f1xx_hal_def.h"
 609              		.file 7 "Drivers/STM32F1xx_HAL_Driver/Inc/stm32f1xx_hal_rcc.h"
 610              		.file 8 "Drivers/STM32F1xx_HAL_Driver/Inc/stm32f1xx_hal_rcc_ex.h"
 611              		.file 9 "Drivers/STM32F1xx_HAL_Driver/Inc/stm32f1xx_hal_gpio.h"
 612              		.file 10 "Drivers/STM32F1xx_HAL_Driver/Inc/stm32f1xx_hal_dma.h"
 613              		.file 11 "Drivers/STM32F1xx_HAL_Driver/Inc/stm32f1xx_hal_can.h"
 614              		.file 12 "Drivers/STM32F1xx_HAL_Driver/Inc/stm32f1xx_hal_spi.h"
 615              		.file 13 "Middlewares/Third_Party/FreeRTOS/Source/portable/GCC/ARM_CM3/portmacro.h"
 616              		.file 14 "Middlewares/Third_Party/FreeRTOS/Source/include/FreeRTOS.h"
 617              		.file 15 "Middlewares/Third_Party/FreeRTOS/Source/include/task.h"
 618              		.file 16 "Middlewares/Third_Party/FreeRTOS/Source/CMSIS_RTOS/cmsis_os.h"
 619              		.file 17 "Drivers/STM32F1xx_HAL_Driver/Inc/stm32f1xx_hal.h"
 620              		.file 18 "<built-in>"
ARM GAS  /tmp/cciIoo9c.s 			page 22

